; Function Attrs: nounwind uwtable
define ptr @l_Lean_ForEachExprWhere_visit_go___at_Lean_Elab_Tactic_BVDecide_Frontend_Normalize_typeAnalysisPass_analyzeType___spec__3___boxed(ptr noundef %0, ptr noundef %1, ptr noundef %2, ptr noundef %3, ptr noundef %4, ptr noundef %5, ptr noundef %6, ptr noundef %7, ptr noundef %8, ptr noundef %9, ptr noundef %10, ptr noundef %11) local_unnamed_addr #1 {
  %13 = ptrtoint ptr %2 to i64
  %14 = lshr i64 %13, 1
  %15 = trunc i64 %14 to i8
  %16 = and i64 %13, 1
  %.not = icmp eq i64 %16, 0
  br i1 %.not, label %17, label %lean_dec.exit15

17:                                               ; preds = %12
  %18 = load i32, ptr %2, align 4, !tbaa !8
  %19 = icmp sgt i32 %18, 1
  br i1 %19, label %20, label %22, !prof !11

20:                                               ; preds = %17
  %21 = add nsw i32 %18, -1
  store i32 %21, ptr %2, align 4, !tbaa !8
  br label %lean_dec.exit15

22:                                               ; preds = %17
  %.not.i = icmp eq i32 %18, 0
  br i1 %.not.i, label %lean_dec.exit15, label %23

23:                                               ; preds = %22
  tail call void @lean_dec_ref_cold(ptr noundef nonnull %2) #4
  br label %lean_dec.exit15

lean_dec.exit15:                                  ; preds = %23, %22, %20, %12
  %24 = tail call ptr @l_Lean_ForEachExprWhere_visit_go___at_Lean_Elab_Tactic_BVDecide_Frontend_Normalize_typeAnalysisPass_analyzeType___spec__3(ptr noundef %0, ptr noundef %1, i8 noundef zeroext %15, ptr noundef %3, ptr noundef %4, ptr noundef %5, ptr noundef %6, ptr noundef %7, ptr noundef %8, ptr noundef %9, ptr noundef %10, ptr noundef %11)
  %25 = ptrtoint ptr %4 to i64
  %26 = and i64 %25, 1
  %.not18 = icmp eq i64 %26, 0
  br i1 %.not18, label %27, label %lean_dec.exit

27:                                               ; preds = %lean_dec.exit15
  %28 = load i32, ptr %4, align 4, !tbaa !8
  %29 = icmp sgt i32 %28, 1
  br i1 %29, label %30, label %32, !prof !11

30:                                               ; preds = %27
  %31 = add nsw i32 %28, -1
  store i32 %31, ptr %4, align 4, !tbaa !8
  br label %lean_dec.exit

32:                                               ; preds = %27
  %.not.i16 = icmp eq i32 %28, 0
  br i1 %.not.i16, label %lean_dec.exit, label %33

33:                                               ; preds = %32
  tail call void @lean_dec_ref_cold(ptr noundef nonnull %4) #4
  br label %lean_dec.exit

lean_dec.exit:                                    ; preds = %33, %32, %30, %lean_dec.exit15
  ret ptr %24
}